; Function Attrs: mustprogress nofree norecurse nosync nounwind willreturn memory(read, inaccessiblemem: none) uwtable
define noundef i32 @_ZNK13sentencepiece4util6Status4codeEv(ptr noundef nonnull readonly align 8 captures(none) dereferenceable(8) %0) local_unnamed_addr #14 align 2 {
  %2 = load ptr, ptr %0, align 8, !tbaa !11
  %.not.i.i = icmp eq ptr %2, null
  br i1 %.not.i.i, label %5, label %3

3:                                                ; preds = %1
  %4 = load i32, ptr %2, align 8, !tbaa !20
  br label %5

5:                                                ; preds = %1, %3
  %6 = phi i32 [ %4, %3 ], [ 0, %1 ]
  ret i32 %6
}